target datalayout = "e-m:e-p270:32:32-p271:32:32-p272:64:64-i64:64-i128:128-f80:128-n8:16:32:64-S128"
target triple = "x86_64-pc-linux-gnu"

; Function Attrs: nounwind uwtable
define ptr @Gia_ManBalanceLut(ptr noundef %0, i32 noundef %1, i32 noundef %2, i32 noundef %3) #0 {
  %5 = alloca ptr, align 8
  %6 = alloca i32, align 4
  %7 = alloca i32, align 4
  %8 = alloca i32, align 4
  %9 = alloca ptr, align 8
  %10 = alloca ptr, align 8
  %11 = alloca ptr, align 8
  store ptr %0, ptr %5, align 8
  store i32 %1, ptr %6, align 4
  store i32 %2, ptr %7, align 4
  store i32 %3, ptr %8, align 4
  %12 = load i32, ptr %8, align 4
  %13 = icmp ne i32 %12, 0
  br i1 %13, label %14, label %16

14:                                               ; preds = %4
  %15 = load ptr, ptr %5, align 8
  call void @Gia_ManPrintStats(ptr noundef %15, ptr noundef null)
  br label %16

16:                                               ; preds = %14, %4
  %17 = load ptr, ptr %5, align 8
  %18 = call ptr @Gia_ManDupMuxes(ptr noundef %17, i32 noundef 2)
  store ptr %18, ptr %9, align 8
  %19 = load i32, ptr %8, align 4
  %20 = icmp ne i32 %19, 0
  br i1 %20, label %21, label %23

21:                                               ; preds = %16
  %22 = load ptr, ptr %9, align 8
  call void @Gia_ManPrintStats(ptr noundef %22, ptr noundef null)
  br label %23

23:                                               ; preds = %21, %16
  %24 = load ptr, ptr %9, align 8
  %25 = load i32, ptr %6, align 4
  %26 = load i32, ptr %7, align 4
  %27 = load i32, ptr %8, align 4
  %28 = call ptr @Gia_ManBalanceInt(ptr noundef %24, i32 noundef %25, i32 noundef %26, i32 noundef %27)
  store ptr %28, ptr %10, align 8
  %29 = load i32, ptr %8, align 4
  %30 = icmp ne i32 %29, 0
  br i1 %30, label %31, label %33

31:                                               ; preds = %23
  %32 = load ptr, ptr %10, align 8
  call void @Gia_ManPrintStats(ptr noundef %32, ptr noundef null)
  br label %33

33:                                               ; preds = %31, %23
  %34 = load ptr, ptr %9, align 8
  call void @Gia_ManStop(ptr noundef %34)
  %35 = load ptr, ptr %10, align 8
  %36 = call ptr @Gia_ManDupNoMuxes(ptr noundef %35, i32 noundef 0)
  store ptr %36, ptr %11, align 8
  %37 = load i32, ptr %8, align 4
  %38 = icmp ne i32 %37, 0
  br i1 %38, label %39, label %41

39:                                               ; preds = %33
  %40 = load ptr, ptr %11, align 8
  call void @Gia_ManPrintStats(ptr noundef %40, ptr noundef null)
  br label %41

41:                                               ; preds = %39, %33
  %42 = load ptr, ptr %10, align 8
  call void @Gia_ManStop(ptr noundef %42)
  %43 = load ptr, ptr %11, align 8
  ret ptr %43
}