; Function Attrs: nounwind uwtable
define ptr @Gia_ManBalanceLut(ptr noundef %0, i32 noundef %1, i32 noundef %2, i32 noundef %3) local_unnamed_addr #0 {
  %.not = icmp eq i32 %3, 0
  br i1 %.not, label %.thread18, label %7

.thread18:                                        ; preds = %4
  %5 = tail call ptr @Gia_ManDupMuxes(ptr noundef %0, i32 noundef 2) #19
  %6 = tail call fastcc ptr @Gia_ManBalanceInt(ptr noundef %5, i32 noundef %1, i32 noundef %2, i32 noundef 0)
  br label %10

7:                                                ; preds = %4
  tail call void @Gia_ManPrintStats(ptr noundef %0, ptr noundef null) #19
  %8 = tail call ptr @Gia_ManDupMuxes(ptr noundef %0, i32 noundef 2) #19
  tail call void @Gia_ManPrintStats(ptr noundef %8, ptr noundef null) #19
  %9 = tail call fastcc ptr @Gia_ManBalanceInt(ptr noundef %8, i32 noundef %1, i32 noundef %2, i32 noundef %3)
  tail call void @Gia_ManPrintStats(ptr noundef %9, ptr noundef null) #19
  br label %10

10:                                               ; preds = %.thread18, %7
  %phi.call20 = phi ptr [ %6, %.thread18 ], [ %9, %7 ]
  %11 = phi ptr [ %5, %.thread18 ], [ %8, %7 ]
  tail call void @Gia_ManStop(ptr noundef %11) #19
  %12 = tail call ptr @Gia_ManDupNoMuxes(ptr noundef %phi.call20, i32 noundef 0) #19
  br i1 %.not, label %14, label %13

13:                                               ; preds = %10
  tail call void @Gia_ManPrintStats(ptr noundef %12, ptr noundef null) #19
  br label %14

14:                                               ; preds = %13, %10
  tail call void @Gia_ManStop(ptr noundef %phi.call20) #19
  ret ptr %12
}